target datalayout = "e-m:e-p270:32:32-p271:32:32-p272:64:64-i64:64-i128:128-f80:128-n8:16:32:64-S128"
target triple = "x86_64-pc-linux-gnu"

%struct.rocksdb_t = type { ptr }
%"class.std::_Function_base" = type { %"union.std::_Any_data", ptr }
%"union.std::_Any_data" = type { %"union.std::_Nocopy_types" }
%"union.std::_Nocopy_types" = type { { i64, i64 } }
%struct.rocksdb_column_family_handle_t = type { ptr, i8 }
%"class.rocksdb::Slice" = type { ptr, i64 }
%struct.rocksdb_readoptions_t = type { %"struct.rocksdb::ReadOptions", %"class.rocksdb::Slice", %"class.rocksdb::Slice", %"class.rocksdb::Slice", %"class.rocksdb::Slice" }
%"struct.rocksdb::ReadOptions" = type { ptr, ptr, ptr, %"class.std::chrono::duration", %"class.std::chrono::duration", i32, i32, i64, %"class.std::optional", i8, i8, i8, i8, i8, i64, i64, ptr, ptr, i8, i8, i8, i8, i8, i8, i8, i8, %"class.std::function.132", i8, i8, i8, i8, i64 }
%"class.std::chrono::duration" = type { i64 }
%"class.std::optional" = type { %"struct.std::_Optional_base" }
%"struct.std::_Optional_base" = type { %"struct.std::_Optional_payload" }
%"struct.std::_Optional_payload" = type { %"struct.std::_Optional_payload_base.base", [7 x i8] }
%"struct.std::_Optional_payload_base.base" = type <{ %"union.std::_Optional_payload_base<unsigned long>::_Storage", i8 }>
%"union.std::_Optional_payload_base<unsigned long>::_Storage" = type { i64 }
%"class.std::function.132" = type { %"class.std::_Function_base", ptr }
%struct.rocksdb_iterator_t = type { ptr }

; Function Attrs: mustprogress uwtable
define ptr @rocksdb_create_iterator_cf(ptr noundef %0, ptr noundef %1, ptr noundef %2) #0 {
  %4 = alloca ptr, align 8
  %5 = alloca ptr, align 8
  %6 = alloca ptr, align 8
  %7 = alloca ptr, align 8
  store ptr %0, ptr %4, align 8, !tbaa !14
  store ptr %1, ptr %5, align 8, !tbaa !263
  store ptr %2, ptr %6, align 8, !tbaa !200
  call void @llvm.lifetime.start.p0(i64 8, ptr %7) #24
  %8 = call noalias noundef nonnull ptr @_Znwm(i64 noundef 8) #25
  store ptr %8, ptr %7, align 8, !tbaa !327
  %9 = load ptr, ptr %4, align 8, !tbaa !14
  %10 = getelementptr inbounds nuw %struct.rocksdb_t, ptr %9, i32 0, i32 0
  %11 = load ptr, ptr %10, align 8, !tbaa !18
  %12 = load ptr, ptr %5, align 8, !tbaa !263
  %13 = getelementptr inbounds nuw %struct.rocksdb_readoptions_t, ptr %12, i32 0, i32 0
  %14 = load ptr, ptr %6, align 8, !tbaa !200
  %15 = getelementptr inbounds nuw %struct.rocksdb_column_family_handle_t, ptr %14, i32 0, i32 0
  %16 = load ptr, ptr %15, align 8, !tbaa !204
  %17 = load ptr, ptr %11, align 8, !tbaa !129
  %18 = getelementptr inbounds ptr, ptr %17, i64 57
  %19 = load ptr, ptr %18, align 8
  %20 = call noundef ptr %19(ptr noundef nonnull align 8 dereferenceable(8) %11, ptr noundef nonnull align 8 dereferenceable(168) %13, ptr noundef %16)
  %21 = load ptr, ptr %7, align 8, !tbaa !327
  %22 = getelementptr inbounds nuw %struct.rocksdb_iterator_t, ptr %21, i32 0, i32 0
  store ptr %20, ptr %22, align 8, !tbaa !329
  %23 = load ptr, ptr %7, align 8, !tbaa !327
  call void @llvm.lifetime.end.p0(i64 8, ptr %7) #24
  ret ptr %23
}