; Function Attrs: mustprogress uwtable
define noundef nonnull ptr @rocksdb_create_iterator_cf(ptr noundef readonly captures(none) %0, ptr noundef %1, ptr noundef readonly captures(none) %2) local_unnamed_addr #0 {
  %4 = tail call noalias noundef nonnull dereferenceable(8) ptr @_Znwm(i64 noundef 8) #46
  %5 = load ptr, ptr %0, align 8, !tbaa !26
  %6 = load ptr, ptr %2, align 8, !tbaa !196
  %7 = load ptr, ptr %5, align 8, !tbaa !23
  %8 = getelementptr inbounds nuw i8, ptr %7, i64 456
  %9 = load ptr, ptr %8, align 8
  %10 = tail call noundef ptr %9(ptr noundef nonnull align 8 dereferenceable(8) %5, ptr noundef nonnull align 8 dereferenceable(168) %1, ptr noundef %6)
  store ptr %10, ptr %4, align 8, !tbaa !312
  ret ptr %4
}